target datalayout = "e-m:e-p270:32:32-p271:32:32-p272:64:64-i64:64-i128:128-f80:128-n8:16:32:64-S128"
target triple = "x86_64-pc-linux-gnu"

; Function Attrs: alwaysinline nounwind uwtable
define internal <4 x i64> @_mm256_set_epi64x(i64 noundef %0, i64 noundef %1, i64 noundef %2, i64 noundef %3) #3 {
  %5 = alloca i64, align 8
  %6 = alloca i64, align 8
  %7 = alloca i64, align 8
  %8 = alloca i64, align 8
  %9 = alloca <4 x i64>, align 32
  store i64 %0, ptr %5, align 8, !tbaa !27
  store i64 %1, ptr %6, align 8, !tbaa !27
  store i64 %2, ptr %7, align 8, !tbaa !27
  store i64 %3, ptr %8, align 8, !tbaa !27
  %10 = load i64, ptr %8, align 8, !tbaa !27
  %11 = insertelement <4 x i64> poison, i64 %10, i32 0
  %12 = load i64, ptr %7, align 8, !tbaa !27
  %13 = insertelement <4 x i64> %11, i64 %12, i32 1
  %14 = load i64, ptr %6, align 8, !tbaa !27
  %15 = insertelement <4 x i64> %13, i64 %14, i32 2
  %16 = load i64, ptr %5, align 8, !tbaa !27
  %17 = insertelement <4 x i64> %15, i64 %16, i32 3
  store <4 x i64> %17, ptr %9, align 32, !tbaa !23
  %18 = load <4 x i64>, ptr %9, align 32, !tbaa !23
  ret <4 x i64> %18
}

; Function Attrs: nounwind uwtable
define hidden void @python_hashlib_Hacl_Hash_Blake2b_Simd256_load_state256b_from_state32(ptr noundef %0, ptr noundef %1) #0 {
  %3 = alloca ptr, align 8
  %4 = alloca ptr, align 8
  %5 = alloca ptr, align 8
  %6 = alloca ptr, align 8
  %7 = alloca ptr, align 8
  %8 = alloca ptr, align 8
  %9 = alloca ptr, align 8
  %10 = alloca ptr, align 8
  %11 = alloca ptr, align 8
  %12 = alloca ptr, align 8
  store ptr %0, ptr %3, align 8, !tbaa !3
  store ptr %1, ptr %4, align 8, !tbaa !24
  call void @llvm.lifetime.start.p0(i64 8, ptr %5) #14
  %13 = load ptr, ptr %3, align 8, !tbaa !3
  store ptr %13, ptr %5, align 8, !tbaa !3
  call void @llvm.lifetime.start.p0(i64 8, ptr %6) #14
  %14 = load ptr, ptr %3, align 8, !tbaa !3
  %15 = getelementptr <4 x i64>, ptr %14, i64 1
  store ptr %15, ptr %6, align 8, !tbaa !3
  call void @llvm.lifetime.start.p0(i64 8, ptr %7) #14
  %16 = load ptr, ptr %3, align 8, !tbaa !3
  %17 = getelementptr <4 x i64>, ptr %16, i64 2
  store ptr %17, ptr %7, align 8, !tbaa !3
  call void @llvm.lifetime.start.p0(i64 8, ptr %8) #14
  %18 = load ptr, ptr %3, align 8, !tbaa !3
  %19 = getelementptr <4 x i64>, ptr %18, i64 3
  store ptr %19, ptr %8, align 8, !tbaa !3
  call void @llvm.lifetime.start.p0(i64 8, ptr %9) #14
  %20 = load ptr, ptr %4, align 8, !tbaa !24
  store ptr %20, ptr %9, align 8, !tbaa !24
  call void @llvm.lifetime.start.p0(i64 8, ptr %10) #14
  %21 = load ptr, ptr %4, align 8, !tbaa !24
  %22 = getelementptr i64, ptr %21, i64 4
  store ptr %22, ptr %10, align 8, !tbaa !24
  call void @llvm.lifetime.start.p0(i64 8, ptr %11) #14
  %23 = load ptr, ptr %4, align 8, !tbaa !24
  %24 = getelementptr i64, ptr %23, i64 8
  store ptr %24, ptr %11, align 8, !tbaa !24
  call void @llvm.lifetime.start.p0(i64 8, ptr %12) #14
  %25 = load ptr, ptr %4, align 8, !tbaa !24
  %26 = getelementptr i64, ptr %25, i64 12
  store ptr %26, ptr %12, align 8, !tbaa !24
  %27 = load ptr, ptr %9, align 8, !tbaa !24
  %28 = getelementptr i64, ptr %27, i64 3
  %29 = load i64, ptr %28, align 8, !tbaa !22
  %30 = load ptr, ptr %9, align 8, !tbaa !24
  %31 = getelementptr i64, ptr %30, i64 2
  %32 = load i64, ptr %31, align 8, !tbaa !22
  %33 = load ptr, ptr %9, align 8, !tbaa !24
  %34 = getelementptr i64, ptr %33, i64 1
  %35 = load i64, ptr %34, align 8, !tbaa !22
  %36 = load ptr, ptr %9, align 8, !tbaa !24
  %37 = getelementptr i64, ptr %36, i64 0
  %38 = load i64, ptr %37, align 8, !tbaa !22
  %39 = call <4 x i64> @_mm256_set_epi64x(i64 noundef %29, i64 noundef %32, i64 noundef %35, i64 noundef %38)
  %40 = load ptr, ptr %5, align 8, !tbaa !3
  %41 = getelementptr <4 x i64>, ptr %40, i64 0
  store <4 x i64> %39, ptr %41, align 32, !tbaa !23
  %42 = load ptr, ptr %10, align 8, !tbaa !24
  %43 = getelementptr i64, ptr %42, i64 3
  %44 = load i64, ptr %43, align 8, !tbaa !22
  %45 = load ptr, ptr %10, align 8, !tbaa !24
  %46 = getelementptr i64, ptr %45, i64 2
  %47 = load i64, ptr %46, align 8, !tbaa !22
  %48 = load ptr, ptr %10, align 8, !tbaa !24
  %49 = getelementptr i64, ptr %48, i64 1
  %50 = load i64, ptr %49, align 8, !tbaa !22
  %51 = load ptr, ptr %10, align 8, !tbaa !24
  %52 = getelementptr i64, ptr %51, i64 0
  %53 = load i64, ptr %52, align 8, !tbaa !22
  %54 = call <4 x i64> @_mm256_set_epi64x(i64 noundef %44, i64 noundef %47, i64 noundef %50, i64 noundef %53)
  %55 = load ptr, ptr %6, align 8, !tbaa !3
  %56 = getelementptr <4 x i64>, ptr %55, i64 0
  store <4 x i64> %54, ptr %56, align 32, !tbaa !23
  %57 = load ptr, ptr %11, align 8, !tbaa !24
  %58 = getelementptr i64, ptr %57, i64 3
  %59 = load i64, ptr %58, align 8, !tbaa !22
  %60 = load ptr, ptr %11, align 8, !tbaa !24
  %61 = getelementptr i64, ptr %60, i64 2
  %62 = load i64, ptr %61, align 8, !tbaa !22
  %63 = load ptr, ptr %11, align 8, !tbaa !24
  %64 = getelementptr i64, ptr %63, i64 1
  %65 = load i64, ptr %64, align 8, !tbaa !22
  %66 = load ptr, ptr %11, align 8, !tbaa !24
  %67 = getelementptr i64, ptr %66, i64 0
  %68 = load i64, ptr %67, align 8, !tbaa !22
  %69 = call <4 x i64> @_mm256_set_epi64x(i64 noundef %59, i64 noundef %62, i64 noundef %65, i64 noundef %68)
  %70 = load ptr, ptr %7, align 8, !tbaa !3
  %71 = getelementptr <4 x i64>, ptr %70, i64 0
  store <4 x i64> %69, ptr %71, align 32, !tbaa !23
  %72 = load ptr, ptr %12, align 8, !tbaa !24
  %73 = getelementptr i64, ptr %72, i64 3
  %74 = load i64, ptr %73, align 8, !tbaa !22
  %75 = load ptr, ptr %12, align 8, !tbaa !24
  %76 = getelementptr i64, ptr %75, i64 2
  %77 = load i64, ptr %76, align 8, !tbaa !22
  %78 = load ptr, ptr %12, align 8, !tbaa !24
  %79 = getelementptr i64, ptr %78, i64 1
  %80 = load i64, ptr %79, align 8, !tbaa !22
  %81 = load ptr, ptr %12, align 8, !tbaa !24
  %82 = getelementptr i64, ptr %81, i64 0
  %83 = load i64, ptr %82, align 8, !tbaa !22
  %84 = call <4 x i64> @_mm256_set_epi64x(i64 noundef %74, i64 noundef %77, i64 noundef %80, i64 noundef %83)
  %85 = load ptr, ptr %8, align 8, !tbaa !3
  %86 = getelementptr <4 x i64>, ptr %85, i64 0
  store <4 x i64> %84, ptr %86, align 32, !tbaa !23
  call void @llvm.lifetime.end.p0(i64 8, ptr %12) #14
  call void @llvm.lifetime.end.p0(i64 8, ptr %11) #14
  call void @llvm.lifetime.end.p0(i64 8, ptr %10) #14
  call void @llvm.lifetime.end.p0(i64 8, ptr %9) #14
  call void @llvm.lifetime.end.p0(i64 8, ptr %8) #14
  call void @llvm.lifetime.end.p0(i64 8, ptr %7) #14
  call void @llvm.lifetime.end.p0(i64 8, ptr %6) #14
  call void @llvm.lifetime.end.p0(i64 8, ptr %5) #14
  ret void
}