; Function Attrs: mustprogress nofree norecurse nosync nounwind willreturn memory(argmem: readwrite) uwtable
define hidden void @python_hashlib_Hacl_Hash_Blake2b_Simd256_load_state256b_from_state32(ptr noundef writeonly captures(none) initializes((0, 128)) %0, ptr noundef readonly captures(none) %1) local_unnamed_addr #9 {
  %3 = getelementptr i8, ptr %0, i64 32
  %4 = getelementptr i8, ptr %0, i64 64
  %5 = getelementptr i8, ptr %0, i64 96
  %6 = getelementptr i8, ptr %1, i64 32
  %7 = getelementptr i8, ptr %1, i64 64
  %8 = getelementptr i8, ptr %1, i64 96
  %9 = getelementptr i8, ptr %1, i64 24
  %10 = load i64, ptr %9, align 8, !tbaa !8
  %11 = getelementptr i8, ptr %1, i64 16
  %12 = load i64, ptr %11, align 8, !tbaa !8
  %13 = getelementptr i8, ptr %1, i64 8
  %14 = load i64, ptr %13, align 8, !tbaa !8
  %15 = load i64, ptr %1, align 8, !tbaa !8
  %16 = insertelement <4 x i64> poison, i64 %15, i64 0
  %17 = insertelement <4 x i64> %16, i64 %14, i64 1
  %18 = insertelement <4 x i64> %17, i64 %12, i64 2
  %19 = insertelement <4 x i64> %18, i64 %10, i64 3
  store <4 x i64> %19, ptr %0, align 32, !tbaa !3
  %20 = getelementptr i8, ptr %1, i64 56
  %21 = load i64, ptr %20, align 8, !tbaa !8
  %22 = getelementptr i8, ptr %1, i64 48
  %23 = load i64, ptr %22, align 8, !tbaa !8
  %24 = getelementptr i8, ptr %1, i64 40
  %25 = load i64, ptr %24, align 8, !tbaa !8
  %26 = load i64, ptr %6, align 8, !tbaa !8
  %27 = insertelement <4 x i64> poison, i64 %26, i64 0
  %28 = insertelement <4 x i64> %27, i64 %25, i64 1
  %29 = insertelement <4 x i64> %28, i64 %23, i64 2
  %30 = insertelement <4 x i64> %29, i64 %21, i64 3
  store <4 x i64> %30, ptr %3, align 32, !tbaa !3
  %31 = getelementptr i8, ptr %1, i64 88
  %32 = load i64, ptr %31, align 8, !tbaa !8
  %33 = getelementptr i8, ptr %1, i64 80
  %34 = load i64, ptr %33, align 8, !tbaa !8
  %35 = getelementptr i8, ptr %1, i64 72
  %36 = load i64, ptr %35, align 8, !tbaa !8
  %37 = load i64, ptr %7, align 8, !tbaa !8
  %38 = insertelement <4 x i64> poison, i64 %37, i64 0
  %39 = insertelement <4 x i64> %38, i64 %36, i64 1
  %40 = insertelement <4 x i64> %39, i64 %34, i64 2
  %41 = insertelement <4 x i64> %40, i64 %32, i64 3
  store <4 x i64> %41, ptr %4, align 32, !tbaa !3
  %42 = getelementptr i8, ptr %1, i64 120
  %43 = load i64, ptr %42, align 8, !tbaa !8
  %44 = getelementptr i8, ptr %1, i64 112
  %45 = load i64, ptr %44, align 8, !tbaa !8
  %46 = getelementptr i8, ptr %1, i64 104
  %47 = load i64, ptr %46, align 8, !tbaa !8
  %48 = load i64, ptr %8, align 8, !tbaa !8
  %49 = insertelement <4 x i64> poison, i64 %48, i64 0
  %50 = insertelement <4 x i64> %49, i64 %47, i64 1
  %51 = insertelement <4 x i64> %50, i64 %45, i64 2
  %52 = insertelement <4 x i64> %51, i64 %43, i64 3
  store <4 x i64> %52, ptr %5, align 32, !tbaa !3
  ret void
}